target datalayout = "e-m:e-p270:32:32-p271:32:32-p272:64:64-i64:64-i128:128-f80:128-n8:16:32:64-S128"
target triple = "x86_64-pc-linux-gnu"

%class.QString = type { ptr }
%class.QObject = type { ptr, %class.QScopedPointer }
%class.QScopedPointer = type { ptr }
%class.QColor = type <{ i32, %"union.QColor::CT", [2 x i8] }>
%"union.QColor::CT" = type { %struct.anon }
%struct.anon = type { i16, i16, i16, i16, i16 }
%class.QPointF = type { double, double }
%class.QualityMapperDialog = type { %class.QDockWidget, %"class.Ui::QualityMapperDialogClass", ptr, ptr, %class.QGraphicsScene, [3 x ptr], double, i8, i8, %class.QList, i32, ptr, ptr, ptr, %class.QGraphicsScene, ptr, [3 x %class.QList.22], ptr, %class.QString, %class.QList, %class.QList, i8, %class.QList.25, %class.QList, ptr, ptr }
%class.QDockWidget = type { %class.QWidget }
%class.QWidget = type { %class.QObject, %class.QPaintDevice, ptr }
%class.QPaintDevice = type { ptr, i16, ptr }
%"class.Ui::QualityMapperDialogClass" = type { %class.Ui_QualityMapperDialogClass }
%class.Ui_QualityMapperDialogClass = type { ptr, ptr, ptr, ptr, ptr, ptr, ptr, ptr, ptr, ptr, ptr, ptr, ptr, ptr, ptr, ptr, ptr, ptr, ptr, ptr, ptr, ptr, ptr, ptr, ptr, ptr, ptr, ptr, ptr, ptr, ptr, ptr, ptr, ptr, ptr, ptr, ptr, ptr, ptr, ptr, ptr, ptr, ptr, ptr, ptr, ptr, ptr, ptr, ptr, ptr, ptr, ptr, ptr, ptr, ptr, ptr, ptr, ptr, ptr, ptr, ptr, ptr, ptr, ptr, ptr, ptr, ptr, ptr }
%class.QGraphicsScene = type { %class.QObject }
%class.QList.22 = type { %union.anon.24 }
%union.anon.24 = type { %struct.QListData }
%struct.QListData = type { ptr }
%class.QList.25 = type { %union.anon.27 }
%union.anon.27 = type { %struct.QListData }
%class.QList = type { %union.anon }
%union.anon = type { %struct.QListData }

; Function Attrs: mustprogress nounwind uwtable
define linkonce_odr void @_ZN6QColor2CTC2Ettttt(ptr noundef nonnull align 2 dereferenceable(10) %0, i16 noundef zeroext %1, i16 noundef zeroext %2, i16 noundef zeroext %3, i16 noundef zeroext %4, i16 noundef zeroext %5) unnamed_addr #4 comdat align 2 {
  %7 = alloca ptr, align 8
  %8 = alloca i16, align 2
  %9 = alloca i16, align 2
  %10 = alloca i16, align 2
  %11 = alloca i16, align 2
  %12 = alloca i16, align 2
  store ptr %0, ptr %7, align 8
  store i16 %1, ptr %8, align 2
  store i16 %2, ptr %9, align 2
  store i16 %3, ptr %10, align 2
  store i16 %4, ptr %11, align 2
  store i16 %5, ptr %12, align 2
  %13 = load ptr, ptr %7, align 8
  %14 = getelementptr inbounds [5 x i16], ptr %13, i64 0, i64 0
  %15 = load i16, ptr %8, align 2
  store i16 %15, ptr %14, align 2
  %16 = getelementptr inbounds i16, ptr %14, i64 1
  %17 = load i16, ptr %9, align 2
  store i16 %17, ptr %16, align 2
  %18 = getelementptr inbounds i16, ptr %16, i64 1
  %19 = load i16, ptr %10, align 2
  store i16 %19, ptr %18, align 2
  %20 = getelementptr inbounds i16, ptr %18, i64 1
  %21 = load i16, ptr %11, align 2
  store i16 %21, ptr %20, align 2
  %22 = getelementptr inbounds i16, ptr %20, i64 1
  %23 = load i16, ptr %12, align 2
  store i16 %23, ptr %22, align 2
  ret void
}

; Function Attrs: mustprogress nounwind uwtable
define linkonce_odr void @_ZN6QColorC2ERKS_(ptr noundef nonnull align 4 dereferenceable(14) %0, ptr noundef nonnull align 4 dereferenceable(14) %1) unnamed_addr #4 comdat align 2 {
  %3 = alloca ptr, align 8
  %4 = alloca ptr, align 8
  store ptr %0, ptr %3, align 8
  store ptr %1, ptr %4, align 8
  %5 = load ptr, ptr %3, align 8
  %6 = getelementptr inbounds %class.QColor, ptr %5, i32 0, i32 0
  %7 = load ptr, ptr %4, align 8
  %8 = getelementptr inbounds %class.QColor, ptr %7, i32 0, i32 0
  %9 = load i32, ptr %8, align 4
  store i32 %9, ptr %6, align 4
  %10 = getelementptr inbounds %class.QColor, ptr %5, i32 0, i32 1
  %11 = load ptr, ptr %4, align 8
  %12 = getelementptr inbounds %class.QColor, ptr %11, i32 0, i32 1
  call void @llvm.memcpy.p0.p0.i64(ptr align 4 %10, ptr align 4 %12, i64 10, i1 false)
  ret void
}

; Function Attrs: mustprogress nounwind uwtable
define linkonce_odr void @_ZN6QColorC2Ev(ptr noundef nonnull align 4 dereferenceable(14) %0) unnamed_addr #4 comdat align 2 {
  %2 = alloca ptr, align 8
  store ptr %0, ptr %2, align 8
  %3 = load ptr, ptr %2, align 8
  %4 = getelementptr inbounds %class.QColor, ptr %3, i32 0, i32 0
  store i32 0, ptr %4, align 4
  %5 = getelementptr inbounds %class.QColor, ptr %3, i32 0, i32 1
  call void @_ZN6QColor2CTC2Ettttt(ptr noundef nonnull align 2 dereferenceable(10) %5, i16 noundef zeroext -1, i16 noundef zeroext 0, i16 noundef zeroext 0, i16 noundef zeroext 0, i16 noundef zeroext 0) #3
  ret void
}

; Function Attrs: mustprogress uwtable
define noundef ptr @_ZN19QualityMapperDialog11addTfHandleEi7QPointFP6TF_KEYi(ptr noundef nonnull align 8 dereferenceable(824) %0, i32 noundef %1, double %2, double %3, ptr noundef %4, i32 noundef %5) #5 align 2 personality ptr @__gxx_personality_v0 {
  %7 = alloca %class.QPointF, align 8
  %8 = alloca ptr, align 8
  %9 = alloca i32, align 4
  %10 = alloca ptr, align 8
  %11 = alloca i32, align 4
  %12 = alloca %class.QColor, align 4
  %13 = alloca %class.QColor, align 4
  %14 = alloca %class.QPointF, align 8
  %15 = alloca ptr, align 8
  %16 = alloca i32, align 4
  %17 = getelementptr inbounds { double, double }, ptr %7, i32 0, i32 0
  store double %2, ptr %17, align 8
  %18 = getelementptr inbounds { double, double }, ptr %7, i32 0, i32 1
  store double %3, ptr %18, align 8
  store ptr %0, ptr %8, align 8
  store i32 %1, ptr %9, align 4
  store ptr %4, ptr %10, align 8
  store i32 %5, ptr %11, align 4
  %19 = load ptr, ptr %8, align 8
  call void @_ZN6QColorC2Ev(ptr noundef nonnull align 4 dereferenceable(14) %12) #3
  %20 = load i32, ptr %9, align 4
  switch i32 %20, label %27 [
    i32 0, label %21
    i32 1, label %23
    i32 2, label %25
  ]

21:                                               ; preds = %6
  %22 = call noundef nonnull align 4 dereferenceable(14) ptr @_ZN6QColoraSEN2Qt11GlobalColorE(ptr noundef nonnull align 4 dereferenceable(14) %12, i32 noundef 7) #3
  br label %29

23:                                               ; preds = %6
  %24 = call noundef nonnull align 4 dereferenceable(14) ptr @_ZN6QColoraSEN2Qt11GlobalColorE(ptr noundef nonnull align 4 dereferenceable(14) %12, i32 noundef 8) #3
  br label %29

25:                                               ; preds = %6
  %26 = call noundef nonnull align 4 dereferenceable(14) ptr @_ZN6QColoraSEN2Qt11GlobalColorE(ptr noundef nonnull align 4 dereferenceable(14) %12, i32 noundef 9) #3
  br label %29

27:                                               ; preds = %6
  %28 = call noundef nonnull align 4 dereferenceable(14) ptr @_ZN6QColoraSEN2Qt11GlobalColorE(ptr noundef nonnull align 4 dereferenceable(14) %12, i32 noundef 2) #3
  br label %29

29:                                               ; preds = %27, %25, %23, %21
  %30 = call noalias noundef nonnull ptr @_Znwm(i64 noundef 88) #22
  %31 = getelementptr inbounds %class.QualityMapperDialog, ptr %19, i32 0, i32 13
  %32 = load ptr, ptr %31, align 8
  call void @_ZN6QColorC2ERKS_(ptr noundef nonnull align 4 dereferenceable(14) %13, ptr noundef nonnull align 4 dereferenceable(14) %12) #3
  call void @llvm.memcpy.p0.p0.i64(ptr align 8 %14, ptr align 8 %7, i64 16, i1 false)
  %33 = load ptr, ptr %10, align 8
  %34 = load i32, ptr %11, align 4
  %35 = getelementptr inbounds { double, double }, ptr %14, i32 0, i32 0
  %36 = load double, ptr %35, align 8
  %37 = getelementptr inbounds { double, double }, ptr %14, i32 0, i32 1
  %38 = load double, ptr %37, align 8
  invoke void @_ZN8TFHandleC1EP10CHART_INFO6QColor7QPointFP6TF_KEYii(ptr noundef nonnull align 8 dereferenceable(81) %30, ptr noundef %32, ptr noundef %13, double %36, double %38, ptr noundef %33, i32 noundef %34, i32 noundef 6)
          to label %39 unwind label %41

39:                                               ; preds = %29
  %40 = call noundef ptr @_ZN19QualityMapperDialog11addTfHandleEP8TFHandle(ptr noundef nonnull align 8 dereferenceable(824) %19, ptr noundef %30)
  ret ptr %40

41:                                               ; preds = %29
  %42 = landingpad { ptr, i32 }
          cleanup
  %43 = extractvalue { ptr, i32 } %42, 0
  store ptr %43, ptr %15, align 8
  %44 = extractvalue { ptr, i32 } %42, 1
  store i32 %44, ptr %16, align 4
  call void @_ZdlPv(ptr noundef %30) #23
  br label %45

45:                                               ; preds = %41
  %46 = load ptr, ptr %15, align 8
  %47 = load i32, ptr %16, align 4
  %48 = insertvalue { ptr, i32 } poison, ptr %46, 0
  %49 = insertvalue { ptr, i32 } %48, i32 %47, 1
  resume { ptr, i32 } %49
}