; Function Attrs: mustprogress uwtable
define noundef ptr @_ZN19QualityMapperDialog11addTfHandleEi7QPointFP6TF_KEYi(ptr noundef nonnull align 8 dereferenceable(824) %0, i32 noundef %1, double %2, double %3, ptr noundef %4, i32 noundef %5) local_unnamed_addr #9 align 2 personality ptr @__gxx_personality_v0 {
  %7 = alloca %class.QColor, align 4
  %8 = alloca %class.QColor, align 4
  store i32 0, ptr %7, align 4
  %9 = getelementptr inbounds i8, ptr %7, i64 4
  store i16 -1, ptr %9, align 4
  %10 = getelementptr inbounds i8, ptr %7, i64 6
  store i64 0, ptr %10, align 2
  %switch.offset = add nsw i32 %1, 7
  %.inv = icmp ugt i32 %1, 2
  %.sink = select i1 %.inv, i32 2, i32 %switch.offset
  %11 = call noundef nonnull align 4 dereferenceable(14) ptr @_ZN6QColoraSEN2Qt11GlobalColorE(ptr noundef nonnull align 4 dereferenceable(14) %7, i32 noundef %.sink) #23
  %12 = call noalias noundef nonnull dereferenceable(88) ptr @_Znwm(i64 noundef 88) #26
  %13 = getelementptr inbounds i8, ptr %0, i64 696
  %14 = load ptr, ptr %13, align 8
  %15 = load i32, ptr %7, align 4
  store i32 %15, ptr %8, align 4
  %16 = getelementptr inbounds i8, ptr %8, i64 4
  call void @llvm.memcpy.p0.p0.i64(ptr noundef nonnull align 4 dereferenceable(10) %16, ptr noundef nonnull align 4 dereferenceable(10) %9, i64 10, i1 false)
  invoke void @_ZN8TFHandleC1EP10CHART_INFO6QColor7QPointFP6TF_KEYii(ptr noundef nonnull align 8 dereferenceable(81) %12, ptr noundef %14, ptr noundef nonnull %8, double %2, double %3, ptr noundef %4, i32 noundef %5, i32 noundef 6)
          to label %17 unwind label %19

17:                                               ; preds = %6
  %18 = call noundef ptr @_ZN19QualityMapperDialog11addTfHandleEP8TFHandle(ptr noundef nonnull align 8 dereferenceable(824) %0, ptr noundef nonnull %12)
  ret ptr %18

19:                                               ; preds = %6
  %20 = landingpad { ptr, i32 }
          cleanup
  call void @_ZdlPv(ptr noundef nonnull %12) #22
  resume { ptr, i32 } %20
}